target datalayout = "e-m:e-p270:32:32-p271:32:32-p272:64:64-i64:64-i128:128-f80:128-n8:16:32:64-S128"
target triple = "x86_64-pc-linux-gnu"

; Function Attrs: null_pointer_is_valid sspstrong uwtable
define internal zeroext i1 @check_slsk_format(ptr noundef %0, ptr noundef %1, i32 noundef %2, ptr noundef %3) #0 {
  %5 = alloca i1, align 1
  %6 = alloca ptr, align 8
  %7 = alloca ptr, align 8
  %8 = alloca i32, align 4
  %9 = alloca ptr, align 8
  %10 = alloca i8, align 1
  store ptr %0, ptr %6, align 8
  store ptr %1, ptr %7, align 8
  store i32 %2, ptr %8, align 4
  store ptr %3, ptr %9, align 8
  %11 = load ptr, ptr %9, align 8
  %12 = getelementptr i8, ptr %11, i64 0
  %13 = load i8, ptr %12, align 1
  %14 = sext i8 %13 to i32
  switch i32 %14, label %57 [
    i32 105, label %15
    i32 98, label %24
    i32 115, label %33
    i32 42, label %56
  ]

15:                                               ; preds = %4
  %16 = load ptr, ptr %6, align 8
  %17 = load i32, ptr %8, align 4
  %18 = call i32 @tvb_captured_length_remaining(ptr noundef %16, i32 noundef %17)
  %19 = icmp slt i32 %18, 4
  br i1 %19, label %20, label %21

20:                                               ; preds = %15
  store i1 false, ptr %5, align 1
  br label %83

21:                                               ; preds = %15
  %22 = load i32, ptr %8, align 4
  %23 = add i32 %22, 4
  store i32 %23, ptr %8, align 4
  br label %58

24:                                               ; preds = %4
  %25 = load ptr, ptr %6, align 8
  %26 = load i32, ptr %8, align 4
  %27 = call i32 @tvb_captured_length_remaining(ptr noundef %25, i32 noundef %26)
  %28 = icmp slt i32 %27, 1
  br i1 %28, label %29, label %30

29:                                               ; preds = %24
  store i1 false, ptr %5, align 1
  br label %83

30:                                               ; preds = %24
  %31 = load i32, ptr %8, align 4
  %32 = add i32 %31, 1
  store i32 %32, ptr %8, align 4
  br label %58

33:                                               ; preds = %4
  %34 = load ptr, ptr %6, align 8
  %35 = load i32, ptr %8, align 4
  %36 = call i32 @tvb_captured_length_remaining(ptr noundef %34, i32 noundef %35)
  %37 = icmp slt i32 %36, 4
  br i1 %37, label %38, label %39

38:                                               ; preds = %33
  store i1 false, ptr %5, align 1
  br label %83

39:                                               ; preds = %33
  %40 = load ptr, ptr %6, align 8
  %41 = load i32, ptr %8, align 4
  %42 = call i32 @tvb_captured_length_remaining(ptr noundef %40, i32 noundef %41)
  %43 = load ptr, ptr %6, align 8
  %44 = load i32, ptr %8, align 4
  %45 = call i32 @tvb_get_letohl(ptr noundef %43, i32 noundef %44)
  %46 = add i32 %45, 4
  %47 = icmp slt i32 %42, %46
  br i1 %47, label %48, label %49

48:                                               ; preds = %39
  store i1 false, ptr %5, align 1
  br label %83

49:                                               ; preds = %39
  %50 = load ptr, ptr %6, align 8
  %51 = load i32, ptr %8, align 4
  %52 = call i32 @tvb_get_letohl(ptr noundef %50, i32 noundef %51)
  %53 = add i32 %52, 4
  %54 = load i32, ptr %8, align 4
  %55 = add i32 %54, %53
  store i32 %55, ptr %8, align 4
  br label %58

56:                                               ; preds = %4
  store i1 true, ptr %5, align 1
  br label %83

57:                                               ; preds = %4
  store i1 false, ptr %5, align 1
  br label %83

58:                                               ; preds = %49, %30, %21
  %59 = load ptr, ptr %9, align 8
  %60 = getelementptr i8, ptr %59, i64 1
  %61 = load i8, ptr %60, align 1
  %62 = sext i8 %61 to i32
  %63 = icmp eq i32 %62, 0
  br i1 %63, label %64, label %71

64:                                               ; preds = %58
  %65 = load ptr, ptr %6, align 8
  %66 = load i32, ptr %8, align 4
  %67 = call i32 @tvb_captured_length_remaining(ptr noundef %65, i32 noundef %66)
  %68 = icmp sgt i32 %67, 0
  br i1 %68, label %69, label %70

69:                                               ; preds = %64
  store i1 false, ptr %5, align 1
  br label %83

70:                                               ; preds = %64
  store i1 true, ptr %5, align 1
  br label %83

71:                                               ; preds = %58
  %72 = load ptr, ptr %7, align 8
  call void @increment_dissection_depth(ptr noundef %72)
  call void @llvm.lifetime.start.p0(i64 1, ptr %10) #6
  %73 = load ptr, ptr %6, align 8
  %74 = load ptr, ptr %7, align 8
  %75 = load i32, ptr %8, align 4
  %76 = load ptr, ptr %9, align 8
  %77 = getelementptr i8, ptr %76, i64 1
  %78 = call zeroext i1 @check_slsk_format(ptr noundef %73, ptr noundef %74, i32 noundef %75, ptr noundef %77)
  %79 = zext i1 %78 to i8
  store i8 %79, ptr %10, align 1
  %80 = load ptr, ptr %7, align 8
  call void @decrement_dissection_depth(ptr noundef %80)
  %81 = load i8, ptr %10, align 1, !range !6, !noundef !7
  %82 = trunc i8 %81 to i1
  store i1 %82, ptr %5, align 1
  call void @llvm.lifetime.end.p0(i64 1, ptr %10) #6
  br label %83

83:                                               ; preds = %71, %70, %69, %57, %56, %48, %38, %29, %20
  %84 = load i1, ptr %5, align 1
  ret i1 %84
}