; Function Attrs: null_pointer_is_valid sspstrong uwtable
define internal fastcc zeroext i1 @check_slsk_format(ptr noundef %0, ptr noundef %1, i32 noundef %2, ptr noundef readonly captures(none) %3) unnamed_addr #0 {
  %5 = load i8, ptr %3, align 1
  switch i8 %5, label %23 [
    i8 105, label %6
    i8 98, label %9
    i8 115, label %12
    i8 42, label %common.ret27
  ]

6:                                                ; preds = %4
  %7 = tail call i32 @tvb_captured_length_remaining(ptr noundef %0, i32 noundef %2)
  %8 = icmp slt i32 %7, 4
  br i1 %8, label %common.ret27, label %24

9:                                                ; preds = %4
  %10 = tail call i32 @tvb_captured_length_remaining(ptr noundef %0, i32 noundef %2)
  %11 = icmp slt i32 %10, 1
  br i1 %11, label %common.ret27, label %24

12:                                               ; preds = %4
  %13 = tail call i32 @tvb_captured_length_remaining(ptr noundef %0, i32 noundef %2)
  %14 = icmp slt i32 %13, 4
  br i1 %14, label %common.ret27, label %15

15:                                               ; preds = %12
  %16 = tail call i32 @tvb_captured_length_remaining(ptr noundef %0, i32 noundef %2)
  %17 = tail call i32 @tvb_get_letohl(ptr noundef %0, i32 noundef %2)
  %18 = add i32 %17, 4
  %19 = icmp slt i32 %16, %18
  br i1 %19, label %common.ret27, label %20

20:                                               ; preds = %15
  %21 = tail call i32 @tvb_get_letohl(ptr noundef %0, i32 noundef %2)
  %22 = add i32 %21, 4
  br label %24

23:                                               ; preds = %4
  br label %common.ret27

24:                                               ; preds = %9, %6, %20
  %.pn = phi i32 [ %22, %20 ], [ 4, %6 ], [ 1, %9 ]
  %.026 = add i32 %.pn, %2
  %25 = getelementptr i8, ptr %3, i64 1
  %26 = load i8, ptr %25, align 1
  %27 = icmp eq i8 %26, 0
  br i1 %27, label %28, label %31

28:                                               ; preds = %24
  %29 = tail call i32 @tvb_captured_length_remaining(ptr noundef %0, i32 noundef %.026)
  %30 = icmp slt i32 %29, 1
  br label %common.ret27

common.ret27:                                     ; preds = %28, %4, %15, %12, %9, %6, %23, %31
  %common.ret27.op = phi i1 [ %32, %31 ], [ false, %23 ], [ false, %6 ], [ false, %9 ], [ false, %12 ], [ false, %15 ], [ true, %4 ], [ %30, %28 ]
  ret i1 %common.ret27.op

31:                                               ; preds = %24
  tail call void @increment_dissection_depth(ptr noundef %1)
  %32 = tail call fastcc zeroext i1 @check_slsk_format(ptr noundef %0, ptr noundef %1, i32 noundef %.026, ptr noundef %25)
  tail call void @decrement_dissection_depth(ptr noundef %1)
  br label %common.ret27
}